(lp0
VPATI3
p1
aVPATI4
p2
aVBAHI3
p3
aVBDLL3
p4
aVBDLL4
p5
aVBALM3
p6
aVBALM4
p7
aVBAUH4
p8
aVBMKS3
p9
aVCAMB4
p10
aVRANI3
p11
aVRANI4
p12
aVELET3
p13
aVELET6
p14
aVCMIG3
p15
aVCMIG4
p16
aVCLSC3
p17
aVCLSC4
p18
aVCESP3
p19
aVCESP5
p20
aVCBEE3
p21
aVFESA3
p22
aVFESA4
p23
aVCEDO3
p24
aVCEDO4
p25
aVCTNM3
p26
aVCTNM4
p27
aVREDE3
p28
aVEEEL3
p29
aVEEEL4
p30
aVHBTS5
p31
aVMSPA3
p32
aVMSPA4
p33
aVGGBR3
p34
aVGGBR4
p35
aVCSNA3
p36
aVCTSA3
p37
aVCTSA4
p38
aVCTKA3
p39
aVCTKA4
p40
aVVALE3
p41
aVELEK3
p42
aVELEK4
p43
aVCGRA3
p44
aVCGRA4
p45
aVGUAR3
p46
aVODER4
p47
aVBRGE3
p48
aVBRGE6
p49
aVCALI3
p50
aVCALI4
p51
aVMEND3
p52
aVMEND5
p53
aVBRKM3
p54
aVBRKM5
p55
aVCORR4
p56
aVDOHL3
p57
aVDOHL4
p58
aVRADL3
p59
aVMNDL3
p60
aVEALT3
p61
aVEALT4
p62
aVWEGE3
p63
aVETER3
p64
aVEUCA3
p65
aVEUCA4
p66
aVFIGE3
p67
aVFIGE4
p68
aVFJTA3
p69
aVFJTA4
p70
aVFRAS3
p71
aVTUPY3
p72
aVVVAR3
p73
aVHETA3
p74
aVHETA4
p75
aVHOOT4
p76
aVIGBR3
p77
aVROMI3
p78
aVTXRX3
p79
aVTXRX4
p80
aVINEP3
p81
aVINEP4
p82
aVITSA3
p83
aVITSA4
p84
aVJFEN3
p85
aVKEPL3
p86
aVLAME3
p87
aVLAME4
p88
aVLREN3
p89
aVLUXM3
p90
aVLUXM4
p91
aVMGEL4
p92
aVESTR3
p93
aVESTR4
p94
aVPOMO3
p95
aVPOMO4
p96
aVLEVE3
p97
aVMTIG3
p98
aVMTIG4
p99
aVGOAU3
p100
aVGOAU4
p101
aVJPSA3
p102
aVMTSA3
p103
aVMTSA4
p104
aVMOAR3
p105
aVNAFG3
p106
aVNAFG4
p107
aVNORD3
p108
aVPNVL3
p109
aVPNVL4
p110
aVPMAM3
p111
aVAHEB3
p112
aVAHEB5
p113
aVPETR3
p114
aVPETR4
p115
aVPTNT3
p116
aVPTNT4
p117
aVRPAD3
p118
aVRPAD6
p119
aVRPMG3
p120
aVALPA3
p121
aVALPA4
p122
aVSLED3
p123
aVSLED4
p124
aVSOND3
p125
aVSOND5
p126
aVSPRI3
p127
aVSPRI5
p128
aVWLMM3
p129
aVWLMM4
p130
aVTCNO3
p131
aVTCNO4
p132
aVTEKA3
p133
aVTEKA4
p134
aVTKNO4
p135
aVTELB3
p136
aVTELB4
p137
aVOIBR3
p138
aVOIBR4
p139
aVCRPG3
p140
aVCRPG5
p141
aVUNIP3
p142
aVUNIP5
p143
aVVULC3
p144
aVMYPK3
p145
aVAZEV3
p146
aVAZEV4
p147
aVMWET3
p148
aVMWET4
p149
aVBOBR4
p150
aVJBDU3
p151
aVJBDU4
p152
aVRCSL3
p153
aVRCSL4
p154
aVKLBN11
p155
aVSNSY5
p156
aVAPTI4
p157
aVJOPA3
p158
aVJOPA4
p159
aVHAGA3
p160
aVHAGA4
p161
aVRSUL4
p162
aVPLAS3
p163
aVMNPR3
p164
aVPTBL3
p165
aVSCAR3
p166
aVMAPT3
p167
aVMAPT4
p168
aVSUZB3
p169
aVRAPT3
p170
aVRAPT4
p171
aVELPL3
p172
aVCPLE3
p173
aVCPLE6
p174
aVUSIM3
p175
aVUSIM5
p176
aVWHRL3
p177
aVWHRL4
p178
aVCEPE5
p179
aVSBSP3
p180
aVCEBR3
p181
aVCEBR6
p182
aVCYRE3
p183
aVCEEB3
p184
aVCEEB5
p185
aVENMT3
p186
aVENMT4
p187
aVSHUL3
p188
aVSHUL4
p189
aVHGTX3
p190
aVPCAR3
p191
aVPCAR4
p192
aVCOCE3
p193
aVCOCE5
p194
aVENGI11
p195
aVVSPT3
p196
aVATOM3
p197
aVBTTL3
p198
aVNEOE3
p199
aVCGAS3
p200
aVCGAS5
p201
aVLIPR3
p202
aVGFSA3
p203
aVBRFS3
p204
aVRSID3
p205
aVECPR3
p206
aVECPR4
p207
aVENMA3B
p208
aVCEGR3
p209
aVGPCP3
p210
aVPSSA3
p211
aVCASN3
p212
aVCASN4
p213
aVEMAE3
p214
aVEMAE4
p215
aVEGIE3
p216
aVRAIL3
p217
aVEKTR3
p218
aVEKTR4
p219
aVCPTP3B
p220
aVTIMP3
p221
aVVIVT3
p222
aVVIVT4
p223
aVSTBP3
p224
aVMMXM3
p225
aVMRSA3B
p226
aVMRSA5B
p227
aVCOGN3
p228
aVCSRN3
p229
aVCSRN6
p230
aVCELP3
p231
aVCELP5
p232
aVGEPA3
p233
aVGEPA4
p234
aVTRPL3
p235
aVTRPL4
p236
aVIDNT3
p237
aVUGPA3
p238
aVDTCY3
p239
aVSAPR11
p240
aVCPFE3
p241
aVPEAB3
p242
aVPEAB4
p243
aVBRAP3
p244
aVBRAP4
p245
aVCCRO3
p246
aVTIET11
p247
aVLIQO3
p248
aVBIOM3M
p249
aVTPIS3
p250
aVCSMG3
p251
aVECOR3
p252
aVNATU3
p253
aVGOLL4
p254
aVGRND3
p255
aVDASA3
p256
aVFRTA3
p257
aVRENT3
p258
aVENBR3
p259
aVCSAN3
p260
aVLIGT3
p261
aVBRML3
p262
aVBRPR3
p263
aVTOTS3
p264
aVEQTL3
p265
aVVLID3
p266
aVAGRO3
p267
aVCARD3
p268
aVLUPA3
p269
aVEMBR3
p270
aVODPV3
p271
aVCCXC3
p272
aVTAEE11
p273
aVMDIA3
p274
aVPFRM3
p275
aVTESA3
p276
aVPOSI3
p277
aVLPSB3
p278
aVTCSA3
p279
aVRDNI3
p280
aVPDGR3
p281
aVIGTA3
p282
aVSMTO3
p283
aVEVEN3
p284
aVCPRE3
p285
aVJBSS3
p286
aVJHSF3
p287
aVFRIO3
p288
aVFHER3
p289
aVCRDE3
p290
aVCEED3
p291
aVCEED4
p292
aVVIVR3
p293
aVLOGN3
p294
aVSLCE3
p295
aVEZTC3
p296
aVMRFG3
p297
aVTGMA3
p298
aVHBOR3
p299
aVMRVE3
p300
aVBEEF3
p301
aVSGPS3
p302
aVMULT3
p303
aVBTOW3
p304
aVGSHP3
p305
aVYDUQ3
p306
aVCCPR3
p307
aVDTEX3
p308
aVSULA11
p309
aVTRIS3
p310
aVTEND3
p311
aVBBRK3
p312
aVENEV3
p313
aVNUTR3
p314
aVOSXB3
p315
aVDIRR3
p316
aVGPAR3
p317
aVHYPE3
p318
aVLLIS3
p319
aVALUP11
p320
aVB3SA3
p321
aVRNEW11
p322
aVADHM3
p323
aVCIEL3
p324
aVFLRY3
p325
aVMILS3
p326
aVJSLG3
p327
aVAMAR3
p328
aVAFLT3
p329
aVPRIO3
p330
aVAPER3
p331
aVARZZ3
p332
aVALSO3
p333
aVENAT3
p334
aVSHOW3
p335
aVMGLU3
p336
aVQUAL3
p337
aVTECN3
p338
aVLCAM3
p339
aVUCAS3
p340
aVSQIA3
p341
aVBSEV3
p342
aVLINX3
p343
aVSMLS3
p344
aVSEER3
p345
aVANIM3
p346
aVABEV3
p347
aVLOGG3
p348
aVCVCB3
p349
aVOMGE3
p350
aVRLOG3
p351
aVDMMO3
p352
aVOFSA3
p353
aVMEAL3
p354
aVWIZS3
p355
aVMOVI3
p356
aVAALR3
p357
aVPARD3
p358
aVAZUL4
p359
aVCRFB3
p360
aVCAML3
p361
aVBRDT3
p362
aVBKBR3
p363
aVGNDI3
p364
aVHAPV3
p365
aVCNTO3
p366
aVGPIV33
p367
aVWSON33
p368
aVGBIO33
p369
a.